target datalayout = "e-m:e-p270:32:32-p271:32:32-p272:64:64-i64:64-i128:128-f80:128-n8:16:32:64-S128"
target triple = "x86_64-pc-linux-gnu"

%union.__CONST_SOCKADDR_ARG = type { ptr }
%struct.sockaddr = type { i16, [14 x i8] }

@.str = private unnamed_addr constant [19 x i8] c"fcntl(%d, F_GETFL)\00", align 1
@.str.1 = private unnamed_addr constant [19 x i8] c"fcntl(%d, F_SETFL)\00", align 1

; Function Attrs: nounwind uwtable
define i32 @evutil_closesocket(i32 noundef %0) #0 {
  %2 = alloca i32, align 4
  store i32 %0, ptr %2, align 4
  %3 = load i32, ptr %2, align 4
  %4 = call i32 @close(i32 noundef %3)
  ret i32 %4
}

; Function Attrs: nounwind uwtable
define i32 @evutil_make_socket_nonblocking(i32 noundef %0) #0 {
  %2 = alloca i32, align 4
  %3 = alloca i32, align 4
  %4 = alloca i32, align 4
  %5 = alloca i32, align 4
  store i32 %0, ptr %3, align 4
  call void @llvm.lifetime.start.p0(i64 4, ptr %4) #11
  %6 = load i32, ptr %3, align 4
  %7 = call i32 (i32, i32, ...) @fcntl(i32 noundef %6, i32 noundef 3, ptr noundef null)
  store i32 %7, ptr %4, align 4
  %8 = icmp slt i32 %7, 0
  br i1 %8, label %9, label %11

9:                                                ; preds = %1
  %10 = load i32, ptr %3, align 4
  call void (ptr, ...) @event_warn(ptr noundef @.str, i32 noundef %10)
  store i32 -1, ptr %2, align 4
  store i32 1, ptr %5, align 4
  br label %25

11:                                               ; preds = %1
  %12 = load i32, ptr %4, align 4
  %13 = and i32 %12, 2048
  %14 = icmp ne i32 %13, 0
  br i1 %14, label %24, label %15

15:                                               ; preds = %11
  %16 = load i32, ptr %3, align 4
  %17 = load i32, ptr %4, align 4
  %18 = or i32 %17, 2048
  %19 = call i32 (i32, i32, ...) @fcntl(i32 noundef %16, i32 noundef 4, i32 noundef %18)
  %20 = icmp eq i32 %19, -1
  br i1 %20, label %21, label %23

21:                                               ; preds = %15
  %22 = load i32, ptr %3, align 4
  call void (ptr, ...) @event_warn(ptr noundef @.str.1, i32 noundef %22)
  store i32 -1, ptr %2, align 4
  store i32 1, ptr %5, align 4
  br label %25

23:                                               ; preds = %15
  br label %24

24:                                               ; preds = %23, %11
  store i32 0, ptr %5, align 4
  br label %25

25:                                               ; preds = %24, %21, %9
  call void @llvm.lifetime.end.p0(i64 4, ptr %4) #11
  %26 = load i32, ptr %5, align 4
  switch i32 %26, label %30 [
    i32 0, label %27
    i32 1, label %28
  ]

27:                                               ; preds = %25
  store i32 0, ptr %2, align 4
  br label %28

28:                                               ; preds = %27, %25
  %29 = load i32, ptr %2, align 4
  ret i32 %29

30:                                               ; preds = %25
  unreachable
}

; Function Attrs: nounwind uwtable
define i32 @evutil_socket_connect_(ptr noundef %0, ptr noundef %1, i32 noundef %2) #0 {
  %4 = alloca i32, align 4
  %5 = alloca ptr, align 8
  %6 = alloca ptr, align 8
  %7 = alloca i32, align 4
  %8 = alloca i32, align 4
  %9 = alloca %union.__CONST_SOCKADDR_ARG, align 8
  %10 = alloca i32, align 4
  %11 = alloca i32, align 4
  store ptr %0, ptr %5, align 8
  store ptr %1, ptr %6, align 8
  store i32 %2, ptr %7, align 4
  call void @llvm.lifetime.start.p0(i64 4, ptr %8) #11
  store i32 0, ptr %8, align 4
  %12 = load ptr, ptr %5, align 8
  %13 = load i32, ptr %12, align 4
  %14 = icmp slt i32 %13, 0
  br i1 %14, label %15, label %31

15:                                               ; preds = %3
  %16 = load ptr, ptr %6, align 8
  %17 = getelementptr inbounds nuw %struct.sockaddr, ptr %16, i32 0, i32 0
  %18 = load i16, ptr %17, align 2
  %19 = zext i16 %18 to i32
  %20 = call i32 @socket(i32 noundef %19, i32 noundef 1, i32 noundef 0) #11
  %21 = load ptr, ptr %5, align 8
  store i32 %20, ptr %21, align 4
  %22 = icmp slt i32 %20, 0
  br i1 %22, label %23, label %24

23:                                               ; preds = %15
  br label %57

24:                                               ; preds = %15
  store i32 1, ptr %8, align 4
  %25 = load ptr, ptr %5, align 8
  %26 = load i32, ptr %25, align 4
  %27 = call i32 @evutil_make_socket_nonblocking(i32 noundef %26)
  %28 = icmp slt i32 %27, 0
  br i1 %28, label %29, label %30

29:                                               ; preds = %24
  br label %57

30:                                               ; preds = %24
  br label %31

31:                                               ; preds = %30, %3
  %32 = load ptr, ptr %5, align 8
  %33 = load i32, ptr %32, align 4
  %34 = load ptr, ptr %6, align 8
  store ptr %34, ptr %9, align 8
  %35 = load i32, ptr %7, align 4
  %36 = getelementptr inbounds nuw %union.__CONST_SOCKADDR_ARG, ptr %9, i32 0, i32 0
  %37 = load ptr, ptr %36, align 8
  %38 = call i32 @connect(i32 noundef %33, ptr %37, i32 noundef %35)
  %39 = icmp slt i32 %38, 0
  br i1 %39, label %40, label %56

40:                                               ; preds = %31
  call void @llvm.lifetime.start.p0(i64 4, ptr %10) #11
  %41 = call ptr @__errno_location() #12
  %42 = load i32, ptr %41, align 4
  store i32 %42, ptr %10, align 4
  %43 = load i32, ptr %10, align 4
  %44 = icmp eq i32 %43, 4
  br i1 %44, label %48, label %45

45:                                               ; preds = %40
  %46 = load i32, ptr %10, align 4
  %47 = icmp eq i32 %46, 115
  br i1 %47, label %48, label %49

48:                                               ; preds = %45, %40
  store i32 0, ptr %4, align 4
  store i32 1, ptr %11, align 4
  br label %54

49:                                               ; preds = %45
  %50 = load i32, ptr %10, align 4
  %51 = icmp eq i32 %50, 111
  br i1 %51, label %52, label %53

52:                                               ; preds = %49
  store i32 2, ptr %4, align 4
  store i32 1, ptr %11, align 4
  br label %54

53:                                               ; preds = %49
  store i32 2, ptr %11, align 4
  br label %54

54:                                               ; preds = %53, %52, %48
  call void @llvm.lifetime.end.p0(i64 4, ptr %10) #11
  %55 = load i32, ptr %11, align 4
  switch i32 %55, label %66 [
    i32 2, label %57
  ]

56:                                               ; preds = %31
  store i32 1, ptr %4, align 4
  store i32 1, ptr %11, align 4
  br label %66

57:                                               ; preds = %54, %29, %23
  %58 = load i32, ptr %8, align 4
  %59 = icmp ne i32 %58, 0
  br i1 %59, label %60, label %65

60:                                               ; preds = %57
  %61 = load ptr, ptr %5, align 8
  %62 = load i32, ptr %61, align 4
  %63 = call i32 @evutil_closesocket(i32 noundef %62)
  %64 = load ptr, ptr %5, align 8
  store i32 -1, ptr %64, align 4
  br label %65

65:                                               ; preds = %60, %57
  store i32 -1, ptr %4, align 4
  store i32 1, ptr %11, align 4
  br label %66

66:                                               ; preds = %65, %54, %56
  call void @llvm.lifetime.end.p0(i64 4, ptr %8) #11
  %67 = load i32, ptr %4, align 4
  ret i32 %67
}