; Function Attrs: nounwind uwtable
define range(i32 -1, 3) i32 @evutil_socket_connect_(ptr noundef captures(none) %0, ptr noundef %1, i32 noundef %2) local_unnamed_addr #0 {
  %4 = load i32, ptr %0, align 4
  %5 = icmp sgt i32 %4, -1
  br i1 %5, label %evutil_make_socket_nonblocking.exit.thread, label %6

6:                                                ; preds = %3
  %7 = load i16, ptr %1, align 2
  %8 = zext i16 %7 to i32
  %9 = tail call i32 @socket(i32 noundef %8, i32 noundef 1, i32 noundef 0) #30
  store i32 %9, ptr %0, align 4
  %10 = icmp slt i32 %9, 0
  br i1 %10, label %.thread22, label %11

11:                                               ; preds = %6
  %12 = tail call i32 (i32, i32, ...) @fcntl(i32 noundef %9, i32 noundef 3, ptr noundef null) #30
  %13 = icmp slt i32 %12, 0
  br i1 %13, label %.thread25, label %14

14:                                               ; preds = %11
  %15 = and i32 %12, 2048
  %.not.i = icmp eq i32 %15, 0
  br i1 %.not.i, label %16, label %evutil_make_socket_nonblocking.exit.thread

16:                                               ; preds = %14
  %17 = or disjoint i32 %12, 2048
  %18 = tail call i32 (i32, i32, ...) @fcntl(i32 noundef %9, i32 noundef 4, i32 noundef %17) #30
  %19 = icmp eq i32 %18, -1
  br i1 %19, label %.thread25, label %evutil_make_socket_nonblocking.exit.thread

.thread25:                                        ; preds = %16, %11
  %.str.sink.i = phi ptr [ @.str, %11 ], [ @.str.1, %16 ]
  tail call void (ptr, ...) @event_warn(ptr noundef nonnull %.str.sink.i, i32 noundef %9) #30
  br label %28

evutil_make_socket_nonblocking.exit.thread:       ; preds = %14, %16, %3
  %20 = load i32, ptr %0, align 4
  %21 = tail call i32 @connect(i32 noundef %20, ptr %1, i32 noundef %2) #30
  %22 = icmp slt i32 %21, 0
  br i1 %22, label %23, label %.thread22

23:                                               ; preds = %evutil_make_socket_nonblocking.exit.thread
  %24 = tail call ptr @__errno_location() #31
  %25 = load i32, ptr %24, align 4
  switch i32 %25, label %27 [
    i32 115, label %.thread22
    i32 4, label %.thread22
    i32 111, label %26
  ]

26:                                               ; preds = %23
  br label %.thread22

27:                                               ; preds = %23
  br i1 %5, label %.thread22, label %28

28:                                               ; preds = %.thread25, %27
  %29 = load i32, ptr %0, align 4
  %30 = tail call i32 @close(i32 noundef %29) #30
  store i32 -1, ptr %0, align 4
  br label %.thread22

.thread22:                                        ; preds = %23, %23, %26, %6, %27, %28, %evutil_make_socket_nonblocking.exit.thread
  %.1 = phi i32 [ 1, %evutil_make_socket_nonblocking.exit.thread ], [ -1, %28 ], [ -1, %27 ], [ -1, %6 ], [ 0, %23 ], [ 0, %23 ], [ 2, %26 ]
  ret i32 %.1
}